; Function Attrs: mustprogress uwtable
define dso_local void @_ZN4Luau7CodeGen3X6418AssemblyBuilderX643jccENS0_12ConditionX64ERNS0_5LabelE(ptr noundef nonnull align 8 dereferenceable(252) %0, i8 noundef zeroext %1, ptr noundef nonnull align 4 captures(none) dereferenceable(8) %2) local_unnamed_addr #0 align 2 {
  %4 = zext i8 %1 to i64
  %5 = getelementptr inbounds nuw [26 x ptr], ptr @_ZN4Luau7CodeGen3X64L19jccTextForConditionE, i64 0, i64 %4
  %6 = load ptr, ptr %5, align 8, !tbaa !64
  %7 = getelementptr inbounds nuw [26 x i8], ptr @_ZN4Luau7CodeGen3X64L16codeForConditionE, i64 0, i64 %4
  %8 = load i8, ptr %7, align 1, !tbaa !13
  %9 = getelementptr inbounds nuw i8, ptr %0, i64 232
  %10 = load ptr, ptr %9, align 8, !tbaa !51
  %11 = getelementptr inbounds nuw i8, ptr %10, i64 1
  store ptr %11, ptr %9, align 8, !tbaa !51
  store i8 15, ptr %10, align 1, !tbaa !13
  %12 = xor i8 %8, -128
  %13 = load ptr, ptr %9, align 8, !tbaa !51
  %14 = getelementptr inbounds nuw i8, ptr %13, i64 1
  store ptr %14, ptr %9, align 8, !tbaa !51
  store i8 %12, ptr %13, align 1, !tbaa !13
  tail call void @_ZN4Luau7CodeGen3X6418AssemblyBuilderX6410placeLabelERNS0_5LabelE(ptr noundef nonnull align 8 dereferenceable(252) %0, ptr noundef nonnull align 4 dereferenceable(8) %2)
  %15 = getelementptr inbounds nuw i8, ptr %0, i64 80
  %16 = load i8, ptr %15, align 8, !tbaa !14, !range !61, !noundef !62
  %17 = trunc nuw i8 %16 to i1
  br i1 %17, label %18, label %19

18:                                               ; preds = %3
  %.sroa.0.0.copyload.i = load i64, ptr %2, align 4
  tail call void @_ZN4Luau7CodeGen3X6418AssemblyBuilderX643logEPKcNS0_5LabelE(ptr noundef nonnull align 8 dereferenceable(252) %0, ptr noundef %6, i64 %.sroa.0.0.copyload.i)
  br label %19

19:                                               ; preds = %18, %3
  %20 = getelementptr inbounds nuw i8, ptr %0, i64 248
  %21 = load i32, ptr %20, align 8, !tbaa !63
  %22 = add i32 %21, 1
  store i32 %22, ptr %20, align 8, !tbaa !63
  %23 = getelementptr inbounds nuw i8, ptr %0, i64 240
  %24 = load ptr, ptr %23, align 8, !tbaa !52
  %25 = load ptr, ptr %9, align 8, !tbaa !51
  %26 = ptrtoint ptr %24 to i64
  %27 = ptrtoint ptr %25 to i64
  %28 = sub i64 %26, %27
  %29 = and i64 %28, 4294967280
  %30 = icmp eq i64 %29, 0
  br i1 %30, label %31, label %_ZN4Luau7CodeGen3X6418AssemblyBuilderX648placeJccEPKcRNS0_5LabelEh.exit

31:                                               ; preds = %19
  tail call void @_ZN4Luau7CodeGen3X6418AssemblyBuilderX646extendEv(ptr noundef nonnull align 8 dereferenceable(252) %0)
  br label %_ZN4Luau7CodeGen3X6418AssemblyBuilderX648placeJccEPKcRNS0_5LabelEh.exit

_ZN4Luau7CodeGen3X6418AssemblyBuilderX648placeJccEPKcRNS0_5LabelEh.exit: ; preds = %19, %31
  ret void
}